target datalayout = "e-m:e-p270:32:32-p271:32:32-p272:64:64-i64:64-i128:128-f80:128-n8:16:32:64-S128"
target triple = "x86_64-pc-linux-gnu"

%struct.PROV_XOR_CTX = type { ptr }
%struct.PROV_XORSIG_CTX = type { ptr, ptr, ptr, i8, [50 x i8], ptr, i64, ptr, ptr, i32 }

@.str.2 = private unnamed_addr constant [31 x i8] c"../openssl/test/tls-provider.c\00", align 1
@__func__.xor_sig_newctx = private unnamed_addr constant [15 x i8] c"xor_sig_newctx\00", align 1

; Function Attrs: nounwind uwtable
define internal ptr @xor_sig_newctx(ptr noundef %0, ptr noundef %1) #0 {
  %3 = alloca ptr, align 8
  %4 = alloca ptr, align 8
  %5 = alloca ptr, align 8
  %6 = alloca ptr, align 8
  %7 = alloca i32, align 4
  store ptr %0, ptr %4, align 8, !tbaa !13
  store ptr %1, ptr %5, align 8, !tbaa !30
  call void @llvm.lifetime.start.p0(i64 8, ptr %6) #8
  %8 = call noalias ptr @CRYPTO_zalloc(i64 noundef 120, ptr noundef @.str.2, i32 noundef 2654)
  store ptr %8, ptr %6, align 8, !tbaa !13
  %9 = load ptr, ptr %6, align 8, !tbaa !13
  %10 = icmp eq ptr %9, null
  br i1 %10, label %11, label %12

11:                                               ; preds = %2
  store ptr null, ptr %3, align 8
  store i32 1, ptr %7, align 4
  br label %35

12:                                               ; preds = %2
  %13 = load ptr, ptr %4, align 8, !tbaa !13
  %14 = getelementptr inbounds nuw %struct.PROV_XOR_CTX, ptr %13, i32 0, i32 0
  %15 = load ptr, ptr %14, align 8, !tbaa !25
  %16 = load ptr, ptr %6, align 8, !tbaa !13
  %17 = getelementptr inbounds nuw %struct.PROV_XORSIG_CTX, ptr %16, i32 0, i32 0
  store ptr %15, ptr %17, align 8, !tbaa !140
  %18 = load ptr, ptr %6, align 8, !tbaa !13
  %19 = getelementptr inbounds nuw %struct.PROV_XORSIG_CTX, ptr %18, i32 0, i32 3
  %20 = load i8, ptr %19, align 8
  %21 = and i8 %20, -2
  %22 = or i8 %21, 0
  store i8 %22, ptr %19, align 8
  %23 = load ptr, ptr %5, align 8, !tbaa !30
  %24 = icmp ne ptr %23, null
  br i1 %24, label %25, label %33

25:                                               ; preds = %12
  %26 = load ptr, ptr %5, align 8, !tbaa !30
  %27 = call noalias ptr @CRYPTO_strdup(ptr noundef %26, ptr noundef @.str.2, i32 noundef 2660)
  %28 = load ptr, ptr %6, align 8, !tbaa !13
  %29 = getelementptr inbounds nuw %struct.PROV_XORSIG_CTX, ptr %28, i32 0, i32 1
  store ptr %27, ptr %29, align 8, !tbaa !144
  %30 = icmp eq ptr %27, null
  br i1 %30, label %31, label %33

31:                                               ; preds = %25
  %32 = load ptr, ptr %6, align 8, !tbaa !13
  call void @CRYPTO_free(ptr noundef %32, ptr noundef @.str.2, i32 noundef 2661)
  store ptr null, ptr %6, align 8, !tbaa !13
  call void @ERR_new()
  call void @ERR_set_debug(ptr noundef @.str.2, i32 noundef 2663, ptr noundef @__func__.xor_sig_newctx)
  call void (i32, i32, ptr, ...) @ERR_set_error(i32 noundef 128, i32 noundef 786688, ptr noundef null)
  br label %33

33:                                               ; preds = %31, %25, %12
  %34 = load ptr, ptr %6, align 8, !tbaa !13
  store ptr %34, ptr %3, align 8
  store i32 1, ptr %7, align 4
  br label %35

35:                                               ; preds = %33, %11
  call void @llvm.lifetime.end.p0(i64 8, ptr %6) #8
  %36 = load ptr, ptr %3, align 8
  ret ptr %36
}