; Function Attrs: nounwind uwtable
define internal ptr @xor_sig_newctx(ptr noundef readonly captures(none) %0, ptr noundef %1) #0 {
  %3 = tail call noalias ptr @CRYPTO_zalloc(i64 noundef 120, ptr noundef nonnull @.str.2, i32 noundef 2654) #16
  %4 = icmp eq ptr %3, null
  br i1 %4, label %15, label %5

5:                                                ; preds = %2
  %6 = load ptr, ptr %0, align 8, !tbaa !4
  store ptr %6, ptr %3, align 8, !tbaa !106
  %7 = getelementptr inbounds nuw i8, ptr %3, i64 24
  %8 = load i8, ptr %7, align 8
  %9 = and i8 %8, -2
  store i8 %9, ptr %7, align 8
  %.not = icmp eq ptr %1, null
  br i1 %.not, label %15, label %10

10:                                               ; preds = %5
  %11 = tail call noalias ptr @CRYPTO_strdup(ptr noundef nonnull %1, ptr noundef nonnull @.str.2, i32 noundef 2660) #16
  %12 = getelementptr inbounds nuw i8, ptr %3, i64 8
  store ptr %11, ptr %12, align 8, !tbaa !110
  %13 = icmp eq ptr %11, null
  br i1 %13, label %14, label %15

14:                                               ; preds = %10
  tail call void @CRYPTO_free(ptr noundef nonnull %3, ptr noundef nonnull @.str.2, i32 noundef 2661) #16
  tail call void @ERR_new() #16
  tail call void @ERR_set_debug(ptr noundef nonnull @.str.2, i32 noundef 2663, ptr noundef nonnull @__func__.xor_sig_newctx) #16
  tail call void (i32, i32, ptr, ...) @ERR_set_error(i32 noundef 128, i32 noundef 786688, ptr noundef null) #16
  br label %15

15:                                               ; preds = %5, %10, %14, %2
  %.010 = phi ptr [ null, %2 ], [ null, %14 ], [ %3, %10 ], [ %3, %5 ]
  ret ptr %.010
}